; ModuleID = '11/320.c'
source_filename = "11/320.c"
target datalayout = "e-m:e-p270:32:32-p271:32:32-p272:64:64-i64:64-f80:128-n8:16:32:64-S128"
target triple = "x86_64-pc-linux-gnu"

@.str = private unnamed_addr constant [9 x i8] c"%d %d %d\00", align 1
@.str.1 = private unnamed_addr constant [3 x i8] c"%d\00", align 1

; Function Attrs: noinline nounwind uwtable
define dso_local i32 @main() #0 {
  %1 = alloca i32, align 4
  %2 = alloca i32, align 4
  %3 = alloca i32, align 4
  %4 = alloca i32, align 4
  %5 = alloca i32, align 4
  %6 = alloca i32, align 4
  %7 = alloca i32, align 4
  %8 = alloca [12 x i32], align 16
  %9 = alloca i32, align 4
  store i32 0, i32* %1, align 4
  store i32 0, i32* %6, align 4
  %10 = call i32 (i8*, ...) @__isoc99_scanf(i8* getelementptr inbounds ([9 x i8], [9 x i8]* @.str, i64 0, i64 0), i32* %2, i32* %3, i32* %4)
  %11 = getelementptr inbounds [12 x i32], [12 x i32]* %8, i64 0, i64 0
  store i32 31, i32* %11, align 16
  %12 = getelementptr inbounds [12 x i32], [12 x i32]* %8, i64 0, i64 2
  store i32 31, i32* %12, align 8
  %13 = getelementptr inbounds [12 x i32], [12 x i32]* %8, i64 0, i64 4
  store i32 31, i32* %13, align 16
  %14 = getelementptr inbounds [12 x i32], [12 x i32]* %8, i64 0, i64 6
  store i32 31, i32* %14, align 8
  %15 = getelementptr inbounds [12 x i32], [12 x i32]* %8, i64 0, i64 7
  store i32 31, i32* %15, align 4
  %16 = getelementptr inbounds [12 x i32], [12 x i32]* %8, i64 0, i64 9
  store i32 31, i32* %16, align 4
  %17 = getelementptr inbounds [12 x i32], [12 x i32]* %8, i64 0, i64 11
  store i32 31, i32* %17, align 4
  %18 = getelementptr inbounds [12 x i32], [12 x i32]* %8, i64 0, i64 3
  store i32 30, i32* %18, align 4
  %19 = getelementptr inbounds [12 x i32], [12 x i32]* %8, i64 0, i64 5
  store i32 30, i32* %19, align 4
  %20 = getelementptr inbounds [12 x i32], [12 x i32]* %8, i64 0, i64 8
  store i32 30, i32* %20, align 16
  %21 = getelementptr inbounds [12 x i32], [12 x i32]* %8, i64 0, i64 10
  store i32 30, i32* %21, align 8
  %22 = load i32, i32* %2, align 4
  %23 = srem i32 %22, 4
  %24 = icmp ne i32 %23, 0
  br i1 %24, label %25, label %27

25:                                               ; preds = %0
  %26 = getelementptr inbounds [12 x i32], [12 x i32]* %8, i64 0, i64 1
  store i32 28, i32* %26, align 4
  br label %55

27:                                               ; preds = %0
  %28 = load i32, i32* %2, align 4
  %29 = srem i32 %28, 4
  %30 = icmp eq i32 %29, 0
  br i1 %30, label %31, label %37

31:                                               ; preds = %27
  %32 = load i32, i32* %2, align 4
  %33 = srem i32 %32, 100
  %34 = icmp ne i32 %33, 0
  br i1 %34, label %35, label %37

35:                                               ; preds = %31
  %36 = getelementptr inbounds [12 x i32], [12 x i32]* %8, i64 0, i64 1
  store i32 29, i32* %36, align 4
  br label %54

37:                                               ; preds = %31, %27
  %38 = load i32, i32* %2, align 4
  %39 = srem i32 %38, 4
  %40 = icmp eq i32 %39, 0
  br i1 %40, label %41, label %51

41:                                               ; preds = %37
  %42 = load i32, i32* %2, align 4
  %43 = srem i32 %42, 100
  %44 = icmp eq i32 %43, 0
  br i1 %44, label %45, label %51

45:                                               ; preds = %41
  %46 = load i32, i32* %2, align 4
  %47 = srem i32 %46, 400
  %48 = icmp eq i32 %47, 0
  br i1 %48, label %49, label %51

49:                                               ; preds = %45
  %50 = getelementptr inbounds [12 x i32], [12 x i32]* %8, i64 0, i64 1
  store i32 29, i32* %50, align 4
  br label %53

51:                                               ; preds = %45, %41, %37
  %52 = getelementptr inbounds [12 x i32], [12 x i32]* %8, i64 0, i64 1
  store i32 28, i32* %52, align 4
  br label %53

53:                                               ; preds = %51, %49
  br label %54

54:                                               ; preds = %53, %35
  br label %55

55:                                               ; preds = %54, %25
  store i32 1, i32* %7, align 4
  br label %56

56:                                               ; preds = %70, %55
  %57 = load i32, i32* %7, align 4
  %58 = load i32, i32* %3, align 4
  %59 = icmp sle i32 %57, %58
  br i1 %59, label %60, label %73

60:                                               ; preds = %56
  %61 = load i32, i32* %3, align 4
  %62 = load i32, i32* %7, align 4
  %63 = sub nsw i32 %61, %62
  %64 = sext i32 %63 to i64
  %65 = getelementptr inbounds [12 x i32], [12 x i32]* %8, i64 0, i64 %64
  %66 = load i32, i32* %65, align 4
  store i32 %66, i32* %5, align 4
  %67 = load i32, i32* %6, align 4
  %68 = load i32, i32* %5, align 4
  %69 = add nsw i32 %67, %68
  store i32 %69, i32* %6, align 4
  br label %70

70:                                               ; preds = %60
  %71 = load i32, i32* %7, align 4
  %72 = add nsw i32 %71, 1
  store i32 %72, i32* %7, align 4
  br label %56

73:                                               ; preds = %56
  %74 = load i32, i32* %6, align 4
  %75 = load i32, i32* %4, align 4
  %76 = add nsw i32 %74, %75
  %77 = load i32, i32* %3, align 4
  %78 = sub nsw i32 %77, 1
  %79 = sext i32 %78 to i64
  %80 = getelementptr inbounds [12 x i32], [12 x i32]* %8, i64 0, i64 %79
  %81 = load i32, i32* %80, align 4
  %82 = sub nsw i32 %76, %81
  store i32 %82, i32* %9, align 4
  %83 = load i32, i32* %9, align 4
  %84 = call i32 (i8*, ...) @printf(i8* getelementptr inbounds ([3 x i8], [3 x i8]* @.str.1, i64 0, i64 0), i32 %83)
  ret i32 0
}

declare dso_local i32 @__isoc99_scanf(i8*, ...) #1

declare dso_local i32 @printf(i8*, ...) #1


!llvm.module.flags = !{!0}
!llvm.ident = !{!1}

!0 = !{i32 1, !"wchar_size", i32 4}
!1 = !{!"clang version 10.0.0-4ubuntu1 "}
